
kernel8.elf:     file format elf64-littleaarch64

Sections:
Idx Name          Size      VMA               LMA               File off  Algn
  0 .text         00000fec  0000000000080000  0000000000080000  00000800  2**11
                  CONTENTS, ALLOC, LOAD, READONLY, CODE
  1 .rodata       00000090  0000000000080ff0  0000000000080ff0  000017f0  2**3
                  CONTENTS, ALLOC, LOAD, READONLY, DATA
  2 .bss          00000004  0000000000081080  0000000000081080  00001880  2**2
                  ALLOC
Contents of section .text:
 80000 a10038d5 3f0440f2 60000054 5f2003d5  ..8.?.@.`..T_ ..
 80010 ffffff17 01000090 21000091 01411cd5  ........!....A..
 80020 0000b0d2 00007fb2 00111cd5 02000090  ................
 80030 42002091 02c018d5 827880d2 02401cd5  B. ......x...@..
 80040 62000010 22401cd5 e0039fd6 3f000091  b..."@......?...
 80050 010000b0 21000291 62490018 82000034  ....!...bI.....4
 80060 3f8400f8 42040051 a2ffff35 6b030094  ?...B..Q...5k...
 80070 e7ffff17 e0039fd6 e007bfa9 e20fbfa9  ................
 80080 e417bfa9 e61fbfa9 e827bfa9 ea2fbfa9  .........'.../..
 80090 ec37bfa9 ee3fbfa9 f047bfa9 f24fbfa9  .7...?...G...O..
 800a0 f457bfa9 f65fbfa9 f867bfa9 fa6fbfa9  .W..._...g...o..
 800b0 fc77bfa9 fe0f1ff8 ac030094 fe0741f8  .w............A.
 800c0 fc77c1a8 fa6fc1a8 f867c1a8 f65fc1a8  .w...o...g..._..
 800d0 f457c1a8 f24fc1a8 f047c1a8 ee3fc1a8  .W...O...G...?..
 800e0 ec37c1a8 ea2fc1a8 e827c1a8 e61fc1a8  .7.../...'......
 800f0 e417c1a8 e20fc1a8 e007c1a8 e0039fd6  ................
 80100 e0039fd6 e0039fd6 1f2003d5 1f2003d5  ......... ... ..
 80110 1f2003d5 1f2003d5 1f2003d5 1f2003d5  . ... ... ... ..
 80120 1f2003d5 1f2003d5 1f2003d5 1f2003d5  . ... ... ... ..
 80130 1f2003d5 1f2003d5 1f2003d5 1f2003d5  . ... ... ... ..
 80140 1f2003d5 1f2003d5 1f2003d5 1f2003d5  . ... ... ... ..
 80150 1f2003d5 1f2003d5 1f2003d5 1f2003d5  . ... ... ... ..
 80160 1f2003d5 1f2003d5 1f2003d5 1f2003d5  . ... ... ... ..
 80170 1f2003d5 1f2003d5 1f2003d5 1f2003d5  . ... ... ... ..
 80180 1f2003d5 1f2003d5 1f2003d5 1f2003d5  . ... ... ... ..
 80190 1f2003d5 1f2003d5 1f2003d5 1f2003d5  . ... ... ... ..
 801a0 1f2003d5 1f2003d5 1f2003d5 1f2003d5  . ... ... ... ..
 801b0 1f2003d5 1f2003d5 1f2003d5 1f2003d5  . ... ... ... ..
 801c0 1f2003d5 1f2003d5 1f2003d5 1f2003d5  . ... ... ... ..
 801d0 1f2003d5 1f2003d5 1f2003d5 1f2003d5  . ... ... ... ..
 801e0 1f2003d5 1f2003d5 1f2003d5 1f2003d5  . ... ... ... ..
 801f0 1f2003d5 1f2003d5 1f2003d5 1f2003d5  . ... ... ... ..
 80200 1f2003d5 1f2003d5 1f2003d5 1f2003d5  . ... ... ... ..
 80210 1f2003d5 1f2003d5 1f2003d5 1f2003d5  . ... ... ... ..
 80220 1f2003d5 1f2003d5 1f2003d5 1f2003d5  . ... ... ... ..
 80230 1f2003d5 1f2003d5 1f2003d5 1f2003d5  . ... ... ... ..
 80240 1f2003d5 1f2003d5 1f2003d5 1f2003d5  . ... ... ... ..
 80250 1f2003d5 1f2003d5 1f2003d5 1f2003d5  . ... ... ... ..
 80260 1f2003d5 1f2003d5 1f2003d5 1f2003d5  . ... ... ... ..
 80270 1f2003d5 1f2003d5 1f2003d5 1f2003d5  . ... ... ... ..
 80280 1f2003d5 1f2003d5 1f2003d5 1f2003d5  . ... ... ... ..
 80290 1f2003d5 1f2003d5 1f2003d5 1f2003d5  . ... ... ... ..
 802a0 1f2003d5 1f2003d5 1f2003d5 1f2003d5  . ... ... ... ..
 802b0 1f2003d5 1f2003d5 1f2003d5 1f2003d5  . ... ... ... ..
 802c0 1f2003d5 1f2003d5 1f2003d5 1f2003d5  . ... ... ... ..
 802d0 1f2003d5 1f2003d5 1f2003d5 1f2003d5  . ... ... ... ..
 802e0 1f2003d5 1f2003d5 1f2003d5 1f2003d5  . ... ... ... ..
 802f0 1f2003d5 1f2003d5 1f2003d5 1f2003d5  . ... ... ... ..
 80300 1f2003d5 1f2003d5 1f2003d5 1f2003d5  . ... ... ... ..
 80310 1f2003d5 1f2003d5 1f2003d5 1f2003d5  . ... ... ... ..
 80320 1f2003d5 1f2003d5 1f2003d5 1f2003d5  . ... ... ... ..
 80330 1f2003d5 1f2003d5 1f2003d5 1f2003d5  . ... ... ... ..
 80340 1f2003d5 1f2003d5 1f2003d5 1f2003d5  . ... ... ... ..
 80350 1f2003d5 1f2003d5 1f2003d5 1f2003d5  . ... ... ... ..
 80360 1f2003d5 1f2003d5 1f2003d5 1f2003d5  . ... ... ... ..
 80370 1f2003d5 1f2003d5 1f2003d5 1f2003d5  . ... ... ... ..
 80380 1f2003d5 1f2003d5 1f2003d5 1f2003d5  . ... ... ... ..
 80390 1f2003d5 1f2003d5 1f2003d5 1f2003d5  . ... ... ... ..
 803a0 1f2003d5 1f2003d5 1f2003d5 1f2003d5  . ... ... ... ..
 803b0 1f2003d5 1f2003d5 1f2003d5 1f2003d5  . ... ... ... ..
 803c0 1f2003d5 1f2003d5 1f2003d5 1f2003d5  . ... ... ... ..
 803d0 1f2003d5 1f2003d5 1f2003d5 1f2003d5  . ... ... ... ..
 803e0 1f2003d5 1f2003d5 1f2003d5 1f2003d5  . ... ... ... ..
 803f0 1f2003d5 1f2003d5 1f2003d5 1f2003d5  . ... ... ... ..
 80400 1f2003d5 1f2003d5 1f2003d5 1f2003d5  . ... ... ... ..
 80410 1f2003d5 1f2003d5 1f2003d5 1f2003d5  . ... ... ... ..
 80420 1f2003d5 1f2003d5 1f2003d5 1f2003d5  . ... ... ... ..
 80430 1f2003d5 1f2003d5 1f2003d5 1f2003d5  . ... ... ... ..
 80440 1f2003d5 1f2003d5 1f2003d5 1f2003d5  . ... ... ... ..
 80450 1f2003d5 1f2003d5 1f2003d5 1f2003d5  . ... ... ... ..
 80460 1f2003d5 1f2003d5 1f2003d5 1f2003d5  . ... ... ... ..
 80470 1f2003d5 1f2003d5 1f2003d5 1f2003d5  . ... ... ... ..
 80480 1f2003d5 1f2003d5 1f2003d5 1f2003d5  . ... ... ... ..
 80490 1f2003d5 1f2003d5 1f2003d5 1f2003d5  . ... ... ... ..
 804a0 1f2003d5 1f2003d5 1f2003d5 1f2003d5  . ... ... ... ..
 804b0 1f2003d5 1f2003d5 1f2003d5 1f2003d5  . ... ... ... ..
 804c0 1f2003d5 1f2003d5 1f2003d5 1f2003d5  . ... ... ... ..
 804d0 1f2003d5 1f2003d5 1f2003d5 1f2003d5  . ... ... ... ..
 804e0 1f2003d5 1f2003d5 1f2003d5 1f2003d5  . ... ... ... ..
 804f0 1f2003d5 1f2003d5 1f2003d5 1f2003d5  . ... ... ... ..
 80500 1f2003d5 1f2003d5 1f2003d5 1f2003d5  . ... ... ... ..
 80510 1f2003d5 1f2003d5 1f2003d5 1f2003d5  . ... ... ... ..
 80520 1f2003d5 1f2003d5 1f2003d5 1f2003d5  . ... ... ... ..
 80530 1f2003d5 1f2003d5 1f2003d5 1f2003d5  . ... ... ... ..
 80540 1f2003d5 1f2003d5 1f2003d5 1f2003d5  . ... ... ... ..
 80550 1f2003d5 1f2003d5 1f2003d5 1f2003d5  . ... ... ... ..
 80560 1f2003d5 1f2003d5 1f2003d5 1f2003d5  . ... ... ... ..
 80570 1f2003d5 1f2003d5 1f2003d5 1f2003d5  . ... ... ... ..
 80580 1f2003d5 1f2003d5 1f2003d5 1f2003d5  . ... ... ... ..
 80590 1f2003d5 1f2003d5 1f2003d5 1f2003d5  . ... ... ... ..
 805a0 1f2003d5 1f2003d5 1f2003d5 1f2003d5  . ... ... ... ..
 805b0 1f2003d5 1f2003d5 1f2003d5 1f2003d5  . ... ... ... ..
 805c0 1f2003d5 1f2003d5 1f2003d5 1f2003d5  . ... ... ... ..
 805d0 1f2003d5 1f2003d5 1f2003d5 1f2003d5  . ... ... ... ..
 805e0 1f2003d5 1f2003d5 1f2003d5 1f2003d5  . ... ... ... ..
 805f0 1f2003d5 1f2003d5 1f2003d5 1f2003d5  . ... ... ... ..
 80600 1f2003d5 1f2003d5 1f2003d5 1f2003d5  . ... ... ... ..
 80610 1f2003d5 1f2003d5 1f2003d5 1f2003d5  . ... ... ... ..
 80620 1f2003d5 1f2003d5 1f2003d5 1f2003d5  . ... ... ... ..
 80630 1f2003d5 1f2003d5 1f2003d5 1f2003d5  . ... ... ... ..
 80640 1f2003d5 1f2003d5 1f2003d5 1f2003d5  . ... ... ... ..
 80650 1f2003d5 1f2003d5 1f2003d5 1f2003d5  . ... ... ... ..
 80660 1f2003d5 1f2003d5 1f2003d5 1f2003d5  . ... ... ... ..
 80670 1f2003d5 1f2003d5 1f2003d5 1f2003d5  . ... ... ... ..
 80680 1f2003d5 1f2003d5 1f2003d5 1f2003d5  . ... ... ... ..
 80690 1f2003d5 1f2003d5 1f2003d5 1f2003d5  . ... ... ... ..
 806a0 1f2003d5 1f2003d5 1f2003d5 1f2003d5  . ... ... ... ..
 806b0 1f2003d5 1f2003d5 1f2003d5 1f2003d5  . ... ... ... ..
 806c0 1f2003d5 1f2003d5 1f2003d5 1f2003d5  . ... ... ... ..
 806d0 1f2003d5 1f2003d5 1f2003d5 1f2003d5  . ... ... ... ..
 806e0 1f2003d5 1f2003d5 1f2003d5 1f2003d5  . ... ... ... ..
 806f0 1f2003d5 1f2003d5 1f2003d5 1f2003d5  . ... ... ... ..
 80700 1f2003d5 1f2003d5 1f2003d5 1f2003d5  . ... ... ... ..
 80710 1f2003d5 1f2003d5 1f2003d5 1f2003d5  . ... ... ... ..
 80720 1f2003d5 1f2003d5 1f2003d5 1f2003d5  . ... ... ... ..
 80730 1f2003d5 1f2003d5 1f2003d5 1f2003d5  . ... ... ... ..
 80740 1f2003d5 1f2003d5 1f2003d5 1f2003d5  . ... ... ... ..
 80750 1f2003d5 1f2003d5 1f2003d5 1f2003d5  . ... ... ... ..
 80760 1f2003d5 1f2003d5 1f2003d5 1f2003d5  . ... ... ... ..
 80770 1f2003d5 1f2003d5 1f2003d5 1f2003d5  . ... ... ... ..
 80780 1f2003d5 1f2003d5 1f2003d5 1f2003d5  . ... ... ... ..
 80790 1f2003d5 1f2003d5 1f2003d5 1f2003d5  . ... ... ... ..
 807a0 1f2003d5 1f2003d5 1f2003d5 1f2003d5  . ... ... ... ..
 807b0 1f2003d5 1f2003d5 1f2003d5 1f2003d5  . ... ... ... ..
 807c0 1f2003d5 1f2003d5 1f2003d5 1f2003d5  . ... ... ... ..
 807d0 1f2003d5 1f2003d5 1f2003d5 1f2003d5  . ... ... ... ..
 807e0 1f2003d5 1f2003d5 1f2003d5 1f2003d5  . ... ... ... ..
 807f0 1f2003d5 1f2003d5 1f2003d5 1f2003d5  . ... ... ... ..
 80800 1dfeff17 1f2003d5 1f2003d5 1f2003d5  ..... ... ... ..
 80810 1f2003d5 1f2003d5 1f2003d5 1f2003d5  . ... ... ... ..
 80820 1f2003d5 1f2003d5 1f2003d5 1f2003d5  . ... ... ... ..
 80830 1f2003d5 1f2003d5 1f2003d5 1f2003d5  . ... ... ... ..
 80840 1f2003d5 1f2003d5 1f2003d5 1f2003d5  . ... ... ... ..
 80850 1f2003d5 1f2003d5 1f2003d5 1f2003d5  . ... ... ... ..
 80860 1f2003d5 1f2003d5 1f2003d5 1f2003d5  . ... ... ... ..
 80870 1f2003d5 1f2003d5 1f2003d5 1f2003d5  . ... ... ... ..
 80880 fefdff17 1f2003d5 1f2003d5 1f2003d5  ..... ... ... ..
 80890 1f2003d5 1f2003d5 1f2003d5 1f2003d5  . ... ... ... ..
 808a0 1f2003d5 1f2003d5 1f2003d5 1f2003d5  . ... ... ... ..
 808b0 1f2003d5 1f2003d5 1f2003d5 1f2003d5  . ... ... ... ..
 808c0 1f2003d5 1f2003d5 1f2003d5 1f2003d5  . ... ... ... ..
 808d0 1f2003d5 1f2003d5 1f2003d5 1f2003d5  . ... ... ... ..
 808e0 1f2003d5 1f2003d5 1f2003d5 1f2003d5  . ... ... ... ..
 808f0 1f2003d5 1f2003d5 1f2003d5 1f2003d5  . ... ... ... ..
 80900 00feff17 1f2003d5 1f2003d5 1f2003d5  ..... ... ... ..
 80910 1f2003d5 1f2003d5 1f2003d5 1f2003d5  . ... ... ... ..
 80920 1f2003d5 1f2003d5 1f2003d5 1f2003d5  . ... ... ... ..
 80930 1f2003d5 1f2003d5 1f2003d5 1f2003d5  . ... ... ... ..
 80940 1f2003d5 1f2003d5 1f2003d5 1f2003d5  . ... ... ... ..
 80950 1f2003d5 1f2003d5 1f2003d5 1f2003d5  . ... ... ... ..
 80960 1f2003d5 1f2003d5 1f2003d5 1f2003d5  . ... ... ... ..
 80970 1f2003d5 1f2003d5 1f2003d5 1f2003d5  . ... ... ... ..
 80980 e1fdff17 00000000 404238d5 00fc42d3  ........@B8...B.
 80990 00044092 c0035fd6 004238d5 c0035fd6  ..@..._..B8..._.
 809a0 00423bd5 00fc5cd3 000c4092 c0035fd6  .B;...\...@..._.
 809b0 20423bd5 00fc46d3 000c4092 c0035fd6   B;...F...@..._.
 809c0 ff4f03d5 c0035fd6 df4f03d5 c0035fd6  .O...._..O...._.
 809d0 ff4203d5 c0035fd6 df4203d5 c0035fd6  .B...._..B...._.
 809e0 ff4103d5 c0035fd6 df4103d5 c0035fd6  .A...._..A...._.
 809f0 020186d2 830086d2 02e0a7f2 03e0a7f2  ................
 80a00 400040b9 610040b9 440040b9 9f00006b  @.@.a.@.D.@....k
 80a10 60000054 400040b9 610040b9 e103012a  `..T@.@.a.@....*
 80a20 208000aa c0035fd6 030186d2 840086d2   ....._.........
 80a30 03e0a7f2 04e0a7f2 650040b9 820040b9  ........e.@...@.
 80a40 610040b9 bf00016b 60000054 610040b9  a.@....k`..Ta.@.
 80a50 820040b9 e203022a 418001aa 410200b4  ..@....*A...A...
 80a60 030186d2 850086d2 2040208b 03e0a7f2  ........ @ .....
 80a70 05e0a7f2 1f2003d5 640040b9 a20040b9  ..... ..d.@...@.
 80a80 610040b9 9f00016b 60000054 610040b9  a.@....k`..Ta.@.
 80a90 a20040b9 e203022a 418001aa 1f0001eb  ..@....*A.......
 80aa0 c8feff54 c0035fd6 820080d2 831280d2  ...T.._.........
 80ab0 02e4a7f2 03e4a7f2 04008452 c0128052  ...........R...R
 80ac0 410040b9 2400a072 21640e12 2100042a  A.@.$..r!d..!..*
 80ad0 410000b9 7f0000b9 1f2003d5 00040071  A........ .....q
 80ae0 c1ffff54 011380d2 02009852 01e4a7f2  ...T.......R....
 80af0 c0128052 220000b9 1f2003d5 00040071  ...R".... .....q
 80b00 c1ffff54 001380d2 83008ad2 00e4a7f2  ...T............
 80b10 23e4a7f2 89088ad2 010c8ad2 1f0000b9  #...............
 80b20 29e4a7f2 21e4a7f2 88098ad2 600040b9  )...!.......`.@.
 80b30 28e4a7f2 070a8ad2 05098ad2 00000032  (..............2
 80b40 600000b9 3f0100b9 27e4a7f2 3f0000b9  `...?...'...?...
 80b50 62008052 25e4a7f2 020100b9 040d8ad2  b..R%...........
 80b60 ff0000b9 24e4a7f2 c6188052 a60000b9  ....$......R....
 80b70 c0218052 800000b9 220000b9 c0035fd6  .!.R...."....._.
 80b80 820a8ad2 22e4a7f2 1f2003d5 410040b9  ....".... ..A.@.
 80b90 c1ff2f36 01088ad2 21e4a7f2 200000b9  ../6....!... ...
 80ba0 c0035fd6 1f2003d5 810a8ad2 21e4a7f2  .._.. ......!...
 80bb0 1f2003d5 200040b9 c0ff0736 00088ad2  . .. .@....6....
 80bc0 41018052 20e4a7f2 000040b9 001c0012  A..R .....@.....
 80bd0 1f340071 0010811a c0035fd6 1f2003d5  .4.q......_.. ..
 80be0 01004039 21020034 820a8ad2 04088ad2  ..@9!..4........
 80bf0 22e4a7f2 24e4a7f2 a5018052 1f2003d5  "...$......R. ..
 80c00 3f280071 40010054 03144038 1f2003d5  ?(.q@..T..@8. ..
 80c10 1f2003d5 410040b9 c1ff2f36 830000b9  . ..A.@.../6....
 80c20 01004039 e1feff35 c0035fd6 1f2003d5  ..@9...5.._.. ..
 80c30 410040b9 c1ff2f36 850000b9 f3ffff17  A.@.../6........
 80c40 820a8ad2 06088ad2 83038052 22e4a7f2  ...........R"...
 80c50 26e4a7f2 1f2003d5 0124c31a 210c0012  &.... ...$..!...
 80c60 25dc0011 24c00011 3f280071 8430851a  %...$...?(.q.0..
 80c70 1f2003d5 410040b9 c1ff2f36 c40000b9  . ..A.@.../6....
 80c80 63100051 7f100031 81feff54 c0035fd6  c..Q...1...T.._.
 80c90 e2cc8c52 067c1f13 c2ccac72 211c0012  ...R.|.....r!...
 80ca0 027c229b 42fc6293 4200066b 00020054  .|".B.b.B..k...T
 80cb0 5f040071 00080054 5f080071 80080054  _..q...T_..q...T
 80cc0 5f0c0071 e0070054 5f100071 60080054  _..q...T_..q`..T
 80cd0 870280d2 5f140071 07e4a7f2 a0000054  ...._..q.......T
 80ce0 00000090 00c03f91 beffff17 07e4a7d2  ......?.........
 80cf0 e3cc8c52 e90040b9 c3ccac72 e4008052  ...R..@....r...R
 80d00 25008052 881280d2 037c239b 3f000071  %..R.....|#.?..q
 80d10 08e4a7f2 c2128052 63fc6293 6300064b  .......Rc.b.c..K
 80d20 6308030b 0304034b 6304030b 8420c31a  c......Kc.... ..
 80d30 2401240a a320c31a 8300032a 6400841a  $.$.. .....*d...
 80d40 e40000b9 1f0100b9 1f2003d5 42040071  ......... ..B..q
 80d50 c1ffff54 031380d2 22008052 03e4a7f2  ...T...."..R....
 80d60 4220c01a c0128052 620000b9 1f2003d5  B .....Rb.... ..
 80d70 1f2003d5 00040071 c1ffff54 001380d2  . .....q...T....
 80d80 00e4a7f2 1f0000b9 41010034 810980d2  ........A..4....
 80d90 834296d2 01e4a7f2 03e0a7f2 0402a052  .B.............R
 80da0 200040b9 4000002a 200000b9 640000b9   .@.@..* ...d...
 80db0 c0035fd6 870080d2 07e4a7f2 cdffff17  .._.............
 80dc0 870180d2 07e4a7f2 caffff17 070180d2  ................
 80dd0 07e4a7f2 c7ffff17 070280d2 07e4a7f2  ................
 80de0 c4ffff17 1f2003d5 820380d2 21008052  ..... ......!..R
 80df0 02e4a7f2 2020c01a 400000b9 c0035fd6  ....  ..@....._.
 80e00 020580d2 21008052 02e4a7f2 2020c01a  ....!..R....  ..
 80e10 400000b9 c0035fd6 fd7bbaa9 fd030091  @....._..{......
 80e20 f55b02a9 160000b0 f35301a9 34008052  .[.......S..4..R
 80e30 f76303a9 13249452 f96b04a9 f300a072  .c...$.R.k.....r
 80e40 fb7305a9 19ffff97 01008052 80008052  .s.........R...R
 80e50 d48200b9 8fffff97 01008052 20028052  ...........R ..R
 80e60 8cffff97 fc03142a 60038052 01008052  .......*`..R...R
 80e70 88ffff97 1a0000b0 e103142a e0028052  ...........*...R
 80e80 84ffff97 980380d2 e103142a c0028052  ...........*...R
 80e90 170580d2 14129a52 f503132a 5a430191  .......R...*ZC..
 80ea0 190000b0 18e4a7f2 17e4a7f2 7400a072  ............t..r
 80eb0 78ffff97 c7feff97 000000b0 00200091  x............ ..
 80ec0 48ffff97 1f2003d5 9f070071 a0020054  H.... .....q...T
 80ed0 9f0b0071 00040054 7c008052 1b00a152  ...q...T|..R...R
 80ee0 e0031aaa 3fffff97 1b0300b9 e003132a  ....?..........*
 80ef0 cefeff97 fb0200b9 20230191 39ffff97  ........ #..9...
 80f00 e003132a c9feff97 c08240b9 9c03000b  ...*......@.....
 80f10 9f0f0071 2d010054 1f040071 9312951a  ...q-..T...q....
 80f20 000000b0 1b028052 00a00091 3c008052  .......R....<..R
 80f30 2cffff97 edffff17 1f040071 b302941a  ,..........q....
 80f40 9f030071 2cfcff54 1f040071 9312951a  ...q,..T...q....
 80f50 e2ffff17 5b00a052 000000b0 00e00091  ....[..R........
 80f60 20ffff97 e1ffff17 004196d2 00e0a7f2   ........A......
 80f70 000040b9 1f004471 40000054 c0035fd6  ..@...Dq@..T.._.
 80f80 000880d2 00e4a7f2 010040b9 3f006071  ..........@.?.`q
 80f90 20010054 010040b9 3f005071 a0010054   ..T..@.?.Pq...T
 80fa0 010040b9 3f007071 a1feff54 010000b9  ..@.?.pq...T....
 80fb0 c0035fd6 010000b9 010000b0 02008012  .._.............
 80fc0 000000b0 228000b9 00800191 05ffff17  ...."...........
 80fd0 010000b9 010000b0 22008052 000000b0  ........"..R....
 80fe0 228000b9 00c00191 fefeff17           "...........    
Contents of section .rodata:
 80ff0 494e5641 4c494420 50494e20 4e554d42  INVALID PIN NUMB
 81000 45520a00 00000000 0a417373 69676e6d  ER.......Assignm
 81010 656e7420 33206279 204b6f75 726f7368  ent 3 by Kourosh
 81020 0a000000 00000000 50696e20 34206973  ........Pin 4 is
 81030 204f4e0a 00000000 50696e20 31372069   ON.....Pin 17 i
 81040 73204f4e 0a000000 4f46460a 00000000  s ON....OFF.....
 81050 50696e20 32372069 73204f4e 0a000000  Pin 27 is ON....
 81060 42555454 4f4e2041 00000000 00000000  BUTTON A........
 81070 42555454 4f4e2042 00000000 00000000  BUTTON B........

Disassembly of section .text:

0000000000080000 <_start>:
   80000:	d53800a1 	mrs	x1, mpidr_el1
   80004:	f240043f 	tst	x1, #0x3
   80008:	54000060 	b.eq	80014 <core_zero>  // b.none

000000000008000c <loop>:
   8000c:	d503205f 	wfe
   80010:	17ffffff 	b	8000c <loop>

0000000000080014 <core_zero>:
   80014:	90000001 	adrp	x1, 80000 <_start>
   80018:	91000021 	add	x1, x1, #0x0
   8001c:	d51c4101 	msr	sp_el1, x1
   80020:	d2b00000 	mov	x0, #0x80000000            	// #2147483648
   80024:	b27f0000 	orr	x0, x0, #0x2
   80028:	d51c1100 	msr	hcr_el2, x0
   8002c:	90000002 	adrp	x2, 80000 <_start>
   80030:	91200042 	add	x2, x2, #0x800
   80034:	d518c002 	msr	vbar_el1, x2
   80038:	d2807882 	mov	x2, #0x3c4                 	// #964
   8003c:	d51c4002 	msr	spsr_el2, x2
   80040:	10000062 	adr	x2, 8004c <AtEL1>
   80044:	d51c4022 	msr	elr_el2, x2
   80048:	d69f03e0 	eret

000000000008004c <AtEL1>:
   8004c:	9100003f 	mov	sp, x1
   80050:	b0000001 	adrp	x1, 81000 <IRQ_handler+0x98>
   80054:	91020021 	add	x1, x1, #0x80
   80058:	18004962 	ldr	w2, 80984 <_vectors+0x184>

000000000008005c <top>:
   8005c:	34000082 	cbz	w2, 8006c <endloop>
   80060:	f800843f 	str	xzr, [x1], #8
   80064:	51000442 	sub	w2, w2, #0x1
   80068:	35ffffa2 	cbnz	w2, 8005c <top>

000000000008006c <endloop>:
   8006c:	9400036b 	bl	80e18 <main>
   80070:	17ffffe7 	b	8000c <loop>

0000000000080074 <_synch_handler>:
   80074:	d69f03e0 	eret

0000000000080078 <_IRQ_handler>:
   80078:	a9bf07e0 	stp	x0, x1, [sp, #-16]!
   8007c:	a9bf0fe2 	stp	x2, x3, [sp, #-16]!
   80080:	a9bf17e4 	stp	x4, x5, [sp, #-16]!
   80084:	a9bf1fe6 	stp	x6, x7, [sp, #-16]!
   80088:	a9bf27e8 	stp	x8, x9, [sp, #-16]!
   8008c:	a9bf2fea 	stp	x10, x11, [sp, #-16]!
   80090:	a9bf37ec 	stp	x12, x13, [sp, #-16]!
   80094:	a9bf3fee 	stp	x14, x15, [sp, #-16]!
   80098:	a9bf47f0 	stp	x16, x17, [sp, #-16]!
   8009c:	a9bf4ff2 	stp	x18, x19, [sp, #-16]!
   800a0:	a9bf57f4 	stp	x20, x21, [sp, #-16]!
   800a4:	a9bf5ff6 	stp	x22, x23, [sp, #-16]!
   800a8:	a9bf67f8 	stp	x24, x25, [sp, #-16]!
   800ac:	a9bf6ffa 	stp	x26, x27, [sp, #-16]!
   800b0:	a9bf77fc 	stp	x28, x29, [sp, #-16]!
   800b4:	f81f0ffe 	str	x30, [sp, #-16]!
   800b8:	940003ac 	bl	80f68 <IRQ_handler>
   800bc:	f84107fe 	ldr	x30, [sp], #16
   800c0:	a8c177fc 	ldp	x28, x29, [sp], #16
   800c4:	a8c16ffa 	ldp	x26, x27, [sp], #16
   800c8:	a8c167f8 	ldp	x24, x25, [sp], #16
   800cc:	a8c15ff6 	ldp	x22, x23, [sp], #16
   800d0:	a8c157f4 	ldp	x20, x21, [sp], #16
   800d4:	a8c14ff2 	ldp	x18, x19, [sp], #16
   800d8:	a8c147f0 	ldp	x16, x17, [sp], #16
   800dc:	a8c13fee 	ldp	x14, x15, [sp], #16
   800e0:	a8c137ec 	ldp	x12, x13, [sp], #16
   800e4:	a8c12fea 	ldp	x10, x11, [sp], #16
   800e8:	a8c127e8 	ldp	x8, x9, [sp], #16
   800ec:	a8c11fe6 	ldp	x6, x7, [sp], #16
   800f0:	a8c117e4 	ldp	x4, x5, [sp], #16
   800f4:	a8c10fe2 	ldp	x2, x3, [sp], #16
   800f8:	a8c107e0 	ldp	x0, x1, [sp], #16
   800fc:	d69f03e0 	eret

0000000000080100 <_FIQ_handler>:
   80100:	d69f03e0 	eret

0000000000080104 <_SError_handler>:
   80104:	d69f03e0 	eret
   80108:	d503201f 	nop
   8010c:	d503201f 	nop
   80110:	d503201f 	nop
   80114:	d503201f 	nop
   80118:	d503201f 	nop
   8011c:	d503201f 	nop
   80120:	d503201f 	nop
   80124:	d503201f 	nop
   80128:	d503201f 	nop
   8012c:	d503201f 	nop
   80130:	d503201f 	nop
   80134:	d503201f 	nop
   80138:	d503201f 	nop
   8013c:	d503201f 	nop
   80140:	d503201f 	nop
   80144:	d503201f 	nop
   80148:	d503201f 	nop
   8014c:	d503201f 	nop
   80150:	d503201f 	nop
   80154:	d503201f 	nop
   80158:	d503201f 	nop
   8015c:	d503201f 	nop
   80160:	d503201f 	nop
   80164:	d503201f 	nop
   80168:	d503201f 	nop
   8016c:	d503201f 	nop
   80170:	d503201f 	nop
   80174:	d503201f 	nop
   80178:	d503201f 	nop
   8017c:	d503201f 	nop
   80180:	d503201f 	nop
   80184:	d503201f 	nop
   80188:	d503201f 	nop
   8018c:	d503201f 	nop
   80190:	d503201f 	nop
   80194:	d503201f 	nop
   80198:	d503201f 	nop
   8019c:	d503201f 	nop
   801a0:	d503201f 	nop
   801a4:	d503201f 	nop
   801a8:	d503201f 	nop
   801ac:	d503201f 	nop
   801b0:	d503201f 	nop
   801b4:	d503201f 	nop
   801b8:	d503201f 	nop
   801bc:	d503201f 	nop
   801c0:	d503201f 	nop
   801c4:	d503201f 	nop
   801c8:	d503201f 	nop
   801cc:	d503201f 	nop
   801d0:	d503201f 	nop
   801d4:	d503201f 	nop
   801d8:	d503201f 	nop
   801dc:	d503201f 	nop
   801e0:	d503201f 	nop
   801e4:	d503201f 	nop
   801e8:	d503201f 	nop
   801ec:	d503201f 	nop
   801f0:	d503201f 	nop
   801f4:	d503201f 	nop
   801f8:	d503201f 	nop
   801fc:	d503201f 	nop
   80200:	d503201f 	nop
   80204:	d503201f 	nop
   80208:	d503201f 	nop
   8020c:	d503201f 	nop
   80210:	d503201f 	nop
   80214:	d503201f 	nop
   80218:	d503201f 	nop
   8021c:	d503201f 	nop
   80220:	d503201f 	nop
   80224:	d503201f 	nop
   80228:	d503201f 	nop
   8022c:	d503201f 	nop
   80230:	d503201f 	nop
   80234:	d503201f 	nop
   80238:	d503201f 	nop
   8023c:	d503201f 	nop
   80240:	d503201f 	nop
   80244:	d503201f 	nop
   80248:	d503201f 	nop
   8024c:	d503201f 	nop
   80250:	d503201f 	nop
   80254:	d503201f 	nop
   80258:	d503201f 	nop
   8025c:	d503201f 	nop
   80260:	d503201f 	nop
   80264:	d503201f 	nop
   80268:	d503201f 	nop
   8026c:	d503201f 	nop
   80270:	d503201f 	nop
   80274:	d503201f 	nop
   80278:	d503201f 	nop
   8027c:	d503201f 	nop
   80280:	d503201f 	nop
   80284:	d503201f 	nop
   80288:	d503201f 	nop
   8028c:	d503201f 	nop
   80290:	d503201f 	nop
   80294:	d503201f 	nop
   80298:	d503201f 	nop
   8029c:	d503201f 	nop
   802a0:	d503201f 	nop
   802a4:	d503201f 	nop
   802a8:	d503201f 	nop
   802ac:	d503201f 	nop
   802b0:	d503201f 	nop
   802b4:	d503201f 	nop
   802b8:	d503201f 	nop
   802bc:	d503201f 	nop
   802c0:	d503201f 	nop
   802c4:	d503201f 	nop
   802c8:	d503201f 	nop
   802cc:	d503201f 	nop
   802d0:	d503201f 	nop
   802d4:	d503201f 	nop
   802d8:	d503201f 	nop
   802dc:	d503201f 	nop
   802e0:	d503201f 	nop
   802e4:	d503201f 	nop
   802e8:	d503201f 	nop
   802ec:	d503201f 	nop
   802f0:	d503201f 	nop
   802f4:	d503201f 	nop
   802f8:	d503201f 	nop
   802fc:	d503201f 	nop
   80300:	d503201f 	nop
   80304:	d503201f 	nop
   80308:	d503201f 	nop
   8030c:	d503201f 	nop
   80310:	d503201f 	nop
   80314:	d503201f 	nop
   80318:	d503201f 	nop
   8031c:	d503201f 	nop
   80320:	d503201f 	nop
   80324:	d503201f 	nop
   80328:	d503201f 	nop
   8032c:	d503201f 	nop
   80330:	d503201f 	nop
   80334:	d503201f 	nop
   80338:	d503201f 	nop
   8033c:	d503201f 	nop
   80340:	d503201f 	nop
   80344:	d503201f 	nop
   80348:	d503201f 	nop
   8034c:	d503201f 	nop
   80350:	d503201f 	nop
   80354:	d503201f 	nop
   80358:	d503201f 	nop
   8035c:	d503201f 	nop
   80360:	d503201f 	nop
   80364:	d503201f 	nop
   80368:	d503201f 	nop
   8036c:	d503201f 	nop
   80370:	d503201f 	nop
   80374:	d503201f 	nop
   80378:	d503201f 	nop
   8037c:	d503201f 	nop
   80380:	d503201f 	nop
   80384:	d503201f 	nop
   80388:	d503201f 	nop
   8038c:	d503201f 	nop
   80390:	d503201f 	nop
   80394:	d503201f 	nop
   80398:	d503201f 	nop
   8039c:	d503201f 	nop
   803a0:	d503201f 	nop
   803a4:	d503201f 	nop
   803a8:	d503201f 	nop
   803ac:	d503201f 	nop
   803b0:	d503201f 	nop
   803b4:	d503201f 	nop
   803b8:	d503201f 	nop
   803bc:	d503201f 	nop
   803c0:	d503201f 	nop
   803c4:	d503201f 	nop
   803c8:	d503201f 	nop
   803cc:	d503201f 	nop
   803d0:	d503201f 	nop
   803d4:	d503201f 	nop
   803d8:	d503201f 	nop
   803dc:	d503201f 	nop
   803e0:	d503201f 	nop
   803e4:	d503201f 	nop
   803e8:	d503201f 	nop
   803ec:	d503201f 	nop
   803f0:	d503201f 	nop
   803f4:	d503201f 	nop
   803f8:	d503201f 	nop
   803fc:	d503201f 	nop
   80400:	d503201f 	nop
   80404:	d503201f 	nop
   80408:	d503201f 	nop
   8040c:	d503201f 	nop
   80410:	d503201f 	nop
   80414:	d503201f 	nop
   80418:	d503201f 	nop
   8041c:	d503201f 	nop
   80420:	d503201f 	nop
   80424:	d503201f 	nop
   80428:	d503201f 	nop
   8042c:	d503201f 	nop
   80430:	d503201f 	nop
   80434:	d503201f 	nop
   80438:	d503201f 	nop
   8043c:	d503201f 	nop
   80440:	d503201f 	nop
   80444:	d503201f 	nop
   80448:	d503201f 	nop
   8044c:	d503201f 	nop
   80450:	d503201f 	nop
   80454:	d503201f 	nop
   80458:	d503201f 	nop
   8045c:	d503201f 	nop
   80460:	d503201f 	nop
   80464:	d503201f 	nop
   80468:	d503201f 	nop
   8046c:	d503201f 	nop
   80470:	d503201f 	nop
   80474:	d503201f 	nop
   80478:	d503201f 	nop
   8047c:	d503201f 	nop
   80480:	d503201f 	nop
   80484:	d503201f 	nop
   80488:	d503201f 	nop
   8048c:	d503201f 	nop
   80490:	d503201f 	nop
   80494:	d503201f 	nop
   80498:	d503201f 	nop
   8049c:	d503201f 	nop
   804a0:	d503201f 	nop
   804a4:	d503201f 	nop
   804a8:	d503201f 	nop
   804ac:	d503201f 	nop
   804b0:	d503201f 	nop
   804b4:	d503201f 	nop
   804b8:	d503201f 	nop
   804bc:	d503201f 	nop
   804c0:	d503201f 	nop
   804c4:	d503201f 	nop
   804c8:	d503201f 	nop
   804cc:	d503201f 	nop
   804d0:	d503201f 	nop
   804d4:	d503201f 	nop
   804d8:	d503201f 	nop
   804dc:	d503201f 	nop
   804e0:	d503201f 	nop
   804e4:	d503201f 	nop
   804e8:	d503201f 	nop
   804ec:	d503201f 	nop
   804f0:	d503201f 	nop
   804f4:	d503201f 	nop
   804f8:	d503201f 	nop
   804fc:	d503201f 	nop
   80500:	d503201f 	nop
   80504:	d503201f 	nop
   80508:	d503201f 	nop
   8050c:	d503201f 	nop
   80510:	d503201f 	nop
   80514:	d503201f 	nop
   80518:	d503201f 	nop
   8051c:	d503201f 	nop
   80520:	d503201f 	nop
   80524:	d503201f 	nop
   80528:	d503201f 	nop
   8052c:	d503201f 	nop
   80530:	d503201f 	nop
   80534:	d503201f 	nop
   80538:	d503201f 	nop
   8053c:	d503201f 	nop
   80540:	d503201f 	nop
   80544:	d503201f 	nop
   80548:	d503201f 	nop
   8054c:	d503201f 	nop
   80550:	d503201f 	nop
   80554:	d503201f 	nop
   80558:	d503201f 	nop
   8055c:	d503201f 	nop
   80560:	d503201f 	nop
   80564:	d503201f 	nop
   80568:	d503201f 	nop
   8056c:	d503201f 	nop
   80570:	d503201f 	nop
   80574:	d503201f 	nop
   80578:	d503201f 	nop
   8057c:	d503201f 	nop
   80580:	d503201f 	nop
   80584:	d503201f 	nop
   80588:	d503201f 	nop
   8058c:	d503201f 	nop
   80590:	d503201f 	nop
   80594:	d503201f 	nop
   80598:	d503201f 	nop
   8059c:	d503201f 	nop
   805a0:	d503201f 	nop
   805a4:	d503201f 	nop
   805a8:	d503201f 	nop
   805ac:	d503201f 	nop
   805b0:	d503201f 	nop
   805b4:	d503201f 	nop
   805b8:	d503201f 	nop
   805bc:	d503201f 	nop
   805c0:	d503201f 	nop
   805c4:	d503201f 	nop
   805c8:	d503201f 	nop
   805cc:	d503201f 	nop
   805d0:	d503201f 	nop
   805d4:	d503201f 	nop
   805d8:	d503201f 	nop
   805dc:	d503201f 	nop
   805e0:	d503201f 	nop
   805e4:	d503201f 	nop
   805e8:	d503201f 	nop
   805ec:	d503201f 	nop
   805f0:	d503201f 	nop
   805f4:	d503201f 	nop
   805f8:	d503201f 	nop
   805fc:	d503201f 	nop
   80600:	d503201f 	nop
   80604:	d503201f 	nop
   80608:	d503201f 	nop
   8060c:	d503201f 	nop
   80610:	d503201f 	nop
   80614:	d503201f 	nop
   80618:	d503201f 	nop
   8061c:	d503201f 	nop
   80620:	d503201f 	nop
   80624:	d503201f 	nop
   80628:	d503201f 	nop
   8062c:	d503201f 	nop
   80630:	d503201f 	nop
   80634:	d503201f 	nop
   80638:	d503201f 	nop
   8063c:	d503201f 	nop
   80640:	d503201f 	nop
   80644:	d503201f 	nop
   80648:	d503201f 	nop
   8064c:	d503201f 	nop
   80650:	d503201f 	nop
   80654:	d503201f 	nop
   80658:	d503201f 	nop
   8065c:	d503201f 	nop
   80660:	d503201f 	nop
   80664:	d503201f 	nop
   80668:	d503201f 	nop
   8066c:	d503201f 	nop
   80670:	d503201f 	nop
   80674:	d503201f 	nop
   80678:	d503201f 	nop
   8067c:	d503201f 	nop
   80680:	d503201f 	nop
   80684:	d503201f 	nop
   80688:	d503201f 	nop
   8068c:	d503201f 	nop
   80690:	d503201f 	nop
   80694:	d503201f 	nop
   80698:	d503201f 	nop
   8069c:	d503201f 	nop
   806a0:	d503201f 	nop
   806a4:	d503201f 	nop
   806a8:	d503201f 	nop
   806ac:	d503201f 	nop
   806b0:	d503201f 	nop
   806b4:	d503201f 	nop
   806b8:	d503201f 	nop
   806bc:	d503201f 	nop
   806c0:	d503201f 	nop
   806c4:	d503201f 	nop
   806c8:	d503201f 	nop
   806cc:	d503201f 	nop
   806d0:	d503201f 	nop
   806d4:	d503201f 	nop
   806d8:	d503201f 	nop
   806dc:	d503201f 	nop
   806e0:	d503201f 	nop
   806e4:	d503201f 	nop
   806e8:	d503201f 	nop
   806ec:	d503201f 	nop
   806f0:	d503201f 	nop
   806f4:	d503201f 	nop
   806f8:	d503201f 	nop
   806fc:	d503201f 	nop
   80700:	d503201f 	nop
   80704:	d503201f 	nop
   80708:	d503201f 	nop
   8070c:	d503201f 	nop
   80710:	d503201f 	nop
   80714:	d503201f 	nop
   80718:	d503201f 	nop
   8071c:	d503201f 	nop
   80720:	d503201f 	nop
   80724:	d503201f 	nop
   80728:	d503201f 	nop
   8072c:	d503201f 	nop
   80730:	d503201f 	nop
   80734:	d503201f 	nop
   80738:	d503201f 	nop
   8073c:	d503201f 	nop
   80740:	d503201f 	nop
   80744:	d503201f 	nop
   80748:	d503201f 	nop
   8074c:	d503201f 	nop
   80750:	d503201f 	nop
   80754:	d503201f 	nop
   80758:	d503201f 	nop
   8075c:	d503201f 	nop
   80760:	d503201f 	nop
   80764:	d503201f 	nop
   80768:	d503201f 	nop
   8076c:	d503201f 	nop
   80770:	d503201f 	nop
   80774:	d503201f 	nop
   80778:	d503201f 	nop
   8077c:	d503201f 	nop
   80780:	d503201f 	nop
   80784:	d503201f 	nop
   80788:	d503201f 	nop
   8078c:	d503201f 	nop
   80790:	d503201f 	nop
   80794:	d503201f 	nop
   80798:	d503201f 	nop
   8079c:	d503201f 	nop
   807a0:	d503201f 	nop
   807a4:	d503201f 	nop
   807a8:	d503201f 	nop
   807ac:	d503201f 	nop
   807b0:	d503201f 	nop
   807b4:	d503201f 	nop
   807b8:	d503201f 	nop
   807bc:	d503201f 	nop
   807c0:	d503201f 	nop
   807c4:	d503201f 	nop
   807c8:	d503201f 	nop
   807cc:	d503201f 	nop
   807d0:	d503201f 	nop
   807d4:	d503201f 	nop
   807d8:	d503201f 	nop
   807dc:	d503201f 	nop
   807e0:	d503201f 	nop
   807e4:	d503201f 	nop
   807e8:	d503201f 	nop
   807ec:	d503201f 	nop
   807f0:	d503201f 	nop
   807f4:	d503201f 	nop
   807f8:	d503201f 	nop
   807fc:	d503201f 	nop

0000000000080800 <_vectors>:
   80800:	17fffe1d 	b	80074 <_synch_handler>
   80804:	d503201f 	nop
   80808:	d503201f 	nop
   8080c:	d503201f 	nop
   80810:	d503201f 	nop
   80814:	d503201f 	nop
   80818:	d503201f 	nop
   8081c:	d503201f 	nop
   80820:	d503201f 	nop
   80824:	d503201f 	nop
   80828:	d503201f 	nop
   8082c:	d503201f 	nop
   80830:	d503201f 	nop
   80834:	d503201f 	nop
   80838:	d503201f 	nop
   8083c:	d503201f 	nop
   80840:	d503201f 	nop
   80844:	d503201f 	nop
   80848:	d503201f 	nop
   8084c:	d503201f 	nop
   80850:	d503201f 	nop
   80854:	d503201f 	nop
   80858:	d503201f 	nop
   8085c:	d503201f 	nop
   80860:	d503201f 	nop
   80864:	d503201f 	nop
   80868:	d503201f 	nop
   8086c:	d503201f 	nop
   80870:	d503201f 	nop
   80874:	d503201f 	nop
   80878:	d503201f 	nop
   8087c:	d503201f 	nop
   80880:	17fffdfe 	b	80078 <_IRQ_handler>
   80884:	d503201f 	nop
   80888:	d503201f 	nop
   8088c:	d503201f 	nop
   80890:	d503201f 	nop
   80894:	d503201f 	nop
   80898:	d503201f 	nop
   8089c:	d503201f 	nop
   808a0:	d503201f 	nop
   808a4:	d503201f 	nop
   808a8:	d503201f 	nop
   808ac:	d503201f 	nop
   808b0:	d503201f 	nop
   808b4:	d503201f 	nop
   808b8:	d503201f 	nop
   808bc:	d503201f 	nop
   808c0:	d503201f 	nop
   808c4:	d503201f 	nop
   808c8:	d503201f 	nop
   808cc:	d503201f 	nop
   808d0:	d503201f 	nop
   808d4:	d503201f 	nop
   808d8:	d503201f 	nop
   808dc:	d503201f 	nop
   808e0:	d503201f 	nop
   808e4:	d503201f 	nop
   808e8:	d503201f 	nop
   808ec:	d503201f 	nop
   808f0:	d503201f 	nop
   808f4:	d503201f 	nop
   808f8:	d503201f 	nop
   808fc:	d503201f 	nop
   80900:	17fffe00 	b	80100 <_FIQ_handler>
   80904:	d503201f 	nop
   80908:	d503201f 	nop
   8090c:	d503201f 	nop
   80910:	d503201f 	nop
   80914:	d503201f 	nop
   80918:	d503201f 	nop
   8091c:	d503201f 	nop
   80920:	d503201f 	nop
   80924:	d503201f 	nop
   80928:	d503201f 	nop
   8092c:	d503201f 	nop
   80930:	d503201f 	nop
   80934:	d503201f 	nop
   80938:	d503201f 	nop
   8093c:	d503201f 	nop
   80940:	d503201f 	nop
   80944:	d503201f 	nop
   80948:	d503201f 	nop
   8094c:	d503201f 	nop
   80950:	d503201f 	nop
   80954:	d503201f 	nop
   80958:	d503201f 	nop
   8095c:	d503201f 	nop
   80960:	d503201f 	nop
   80964:	d503201f 	nop
   80968:	d503201f 	nop
   8096c:	d503201f 	nop
   80970:	d503201f 	nop
   80974:	d503201f 	nop
   80978:	d503201f 	nop
   8097c:	d503201f 	nop
   80980:	17fffde1 	b	80104 <_SError_handler>
   80984:	00000000 	.word	0x00000000

0000000000080988 <getCurrentEL>:
   80988:	d5384240 	mrs	x0, currentel
   8098c:	d342fc00 	lsr	x0, x0, #2
   80990:	92400400 	and	x0, x0, #0x3
   80994:	d65f03c0 	ret

0000000000080998 <getSPSel>:
   80998:	d5384200 	mrs	x0, spsel
   8099c:	d65f03c0 	ret

00000000000809a0 <getNZCV>:
   809a0:	d53b4200 	mrs	x0, nzcv
   809a4:	d35cfc00 	lsr	x0, x0, #28
   809a8:	92400c00 	and	x0, x0, #0xf
   809ac:	d65f03c0 	ret

00000000000809b0 <getDAIF>:
   809b0:	d53b4220 	mrs	x0, daif
   809b4:	d346fc00 	lsr	x0, x0, #6
   809b8:	92400c00 	and	x0, x0, #0xf
   809bc:	d65f03c0 	ret

00000000000809c0 <enableDAIF>:
   809c0:	d5034fff 	msr	daifclr, #0xf
   809c4:	d65f03c0 	ret

00000000000809c8 <disableDAIF>:
   809c8:	d5034fdf 	msr	daifset, #0xf
   809cc:	d65f03c0 	ret

00000000000809d0 <enableIRQ>:
   809d0:	d50342ff 	msr	daifclr, #0x2
   809d4:	d65f03c0 	ret

00000000000809d8 <disableIRQ>:
   809d8:	d50342df 	msr	daifset, #0x2
   809dc:	d65f03c0 	ret

00000000000809e0 <enableFIQ>:
   809e0:	d50341ff 	msr	daifclr, #0x1
   809e4:	d65f03c0 	ret

00000000000809e8 <disableFIQ>:
   809e8:	d50341df 	msr	daifset, #0x1
   809ec:	d65f03c0 	ret

00000000000809f0 <get_timer_counter>:
   809f0:	d2860102 	mov	x2, #0x3008                	// #12296
   809f4:	d2860083 	mov	x3, #0x3004                	// #12292
   809f8:	f2a7e002 	movk	x2, #0x3f00, lsl #16
   809fc:	f2a7e003 	movk	x3, #0x3f00, lsl #16
   80a00:	b9400040 	ldr	w0, [x2]
   80a04:	b9400061 	ldr	w1, [x3]
   80a08:	b9400044 	ldr	w4, [x2]
   80a0c:	6b00009f 	cmp	w4, w0
   80a10:	54000060 	b.eq	80a1c <get_timer_counter+0x2c>  // b.none
   80a14:	b9400040 	ldr	w0, [x2]
   80a18:	b9400061 	ldr	w1, [x3]
   80a1c:	2a0103e1 	mov	w1, w1
   80a20:	aa008020 	orr	x0, x1, x0, lsl #32
   80a24:	d65f03c0 	ret

0000000000080a28 <microsecond_delay>:
   80a28:	d2860103 	mov	x3, #0x3008                	// #12296
   80a2c:	d2860084 	mov	x4, #0x3004                	// #12292
   80a30:	f2a7e003 	movk	x3, #0x3f00, lsl #16
   80a34:	f2a7e004 	movk	x4, #0x3f00, lsl #16
   80a38:	b9400065 	ldr	w5, [x3]
   80a3c:	b9400082 	ldr	w2, [x4]
   80a40:	b9400061 	ldr	w1, [x3]
   80a44:	6b0100bf 	cmp	w5, w1
   80a48:	54000060 	b.eq	80a54 <microsecond_delay+0x2c>  // b.none
   80a4c:	b9400061 	ldr	w1, [x3]
   80a50:	b9400082 	ldr	w2, [x4]
   80a54:	2a0203e2 	mov	w2, w2
   80a58:	aa018041 	orr	x1, x2, x1, lsl #32
   80a5c:	b4000241 	cbz	x1, 80aa4 <microsecond_delay+0x7c>
   80a60:	d2860103 	mov	x3, #0x3008                	// #12296
   80a64:	d2860085 	mov	x5, #0x3004                	// #12292
   80a68:	8b204020 	add	x0, x1, w0, uxtw
   80a6c:	f2a7e003 	movk	x3, #0x3f00, lsl #16
   80a70:	f2a7e005 	movk	x5, #0x3f00, lsl #16
   80a74:	d503201f 	nop
   80a78:	b9400064 	ldr	w4, [x3]
   80a7c:	b94000a2 	ldr	w2, [x5]
   80a80:	b9400061 	ldr	w1, [x3]
   80a84:	6b01009f 	cmp	w4, w1
   80a88:	54000060 	b.eq	80a94 <microsecond_delay+0x6c>  // b.none
   80a8c:	b9400061 	ldr	w1, [x3]
   80a90:	b94000a2 	ldr	w2, [x5]
   80a94:	2a0203e2 	mov	w2, w2
   80a98:	aa018041 	orr	x1, x2, x1, lsl #32
   80a9c:	eb01001f 	cmp	x0, x1
   80aa0:	54fffec8 	b.hi	80a78 <microsecond_delay+0x50>  // b.pmore
   80aa4:	d65f03c0 	ret

0000000000080aa8 <uart_init>:
   80aa8:	d2800082 	mov	x2, #0x4                   	// #4
   80aac:	d2801283 	mov	x3, #0x94                  	// #148
   80ab0:	f2a7e402 	movk	x2, #0x3f20, lsl #16
   80ab4:	f2a7e403 	movk	x3, #0x3f20, lsl #16
   80ab8:	52840004 	mov	w4, #0x2000                	// #8192
   80abc:	528012c0 	mov	w0, #0x96                  	// #150
   80ac0:	b9400041 	ldr	w1, [x2]
   80ac4:	72a00024 	movk	w4, #0x1, lsl #16
   80ac8:	120e6421 	and	w1, w1, #0xfffc0fff
   80acc:	2a040021 	orr	w1, w1, w4
   80ad0:	b9000041 	str	w1, [x2]
   80ad4:	b900007f 	str	wzr, [x3]
   80ad8:	d503201f 	nop
   80adc:	71000400 	subs	w0, w0, #0x1
   80ae0:	54ffffc1 	b.ne	80ad8 <uart_init+0x30>  // b.any
   80ae4:	d2801301 	mov	x1, #0x98                  	// #152
   80ae8:	52980002 	mov	w2, #0xc000                	// #49152
   80aec:	f2a7e401 	movk	x1, #0x3f20, lsl #16
   80af0:	528012c0 	mov	w0, #0x96                  	// #150
   80af4:	b9000022 	str	w2, [x1]
   80af8:	d503201f 	nop
   80afc:	71000400 	subs	w0, w0, #0x1
   80b00:	54ffffc1 	b.ne	80af8 <uart_init+0x50>  // b.any
   80b04:	d2801300 	mov	x0, #0x98                  	// #152
   80b08:	d28a0083 	mov	x3, #0x5004                	// #20484
   80b0c:	f2a7e400 	movk	x0, #0x3f20, lsl #16
   80b10:	f2a7e423 	movk	x3, #0x3f21, lsl #16
   80b14:	d28a0889 	mov	x9, #0x5044                	// #20548
   80b18:	d28a0c01 	mov	x1, #0x5060                	// #20576
   80b1c:	b900001f 	str	wzr, [x0]
   80b20:	f2a7e429 	movk	x9, #0x3f21, lsl #16
   80b24:	f2a7e421 	movk	x1, #0x3f21, lsl #16
   80b28:	d28a0988 	mov	x8, #0x504c                	// #20556
   80b2c:	b9400060 	ldr	w0, [x3]
   80b30:	f2a7e428 	movk	x8, #0x3f21, lsl #16
   80b34:	d28a0a07 	mov	x7, #0x5050                	// #20560
   80b38:	d28a0905 	mov	x5, #0x5048                	// #20552
   80b3c:	32000000 	orr	w0, w0, #0x1
   80b40:	b9000060 	str	w0, [x3]
   80b44:	b900013f 	str	wzr, [x9]
   80b48:	f2a7e427 	movk	x7, #0x3f21, lsl #16
   80b4c:	b900003f 	str	wzr, [x1]
   80b50:	52800062 	mov	w2, #0x3                   	// #3
   80b54:	f2a7e425 	movk	x5, #0x3f21, lsl #16
   80b58:	b9000102 	str	w2, [x8]
   80b5c:	d28a0d04 	mov	x4, #0x5068                	// #20584
   80b60:	b90000ff 	str	wzr, [x7]
   80b64:	f2a7e424 	movk	x4, #0x3f21, lsl #16
   80b68:	528018c6 	mov	w6, #0xc6                  	// #198
   80b6c:	b90000a6 	str	w6, [x5]
   80b70:	528021c0 	mov	w0, #0x10e                 	// #270
   80b74:	b9000080 	str	w0, [x4]
   80b78:	b9000022 	str	w2, [x1]
   80b7c:	d65f03c0 	ret

0000000000080b80 <uart_putc>:
   80b80:	d28a0a82 	mov	x2, #0x5054                	// #20564
   80b84:	f2a7e422 	movk	x2, #0x3f21, lsl #16
   80b88:	d503201f 	nop
   80b8c:	b9400041 	ldr	w1, [x2]
   80b90:	362fffc1 	tbz	w1, #5, 80b88 <uart_putc+0x8>
   80b94:	d28a0801 	mov	x1, #0x5040                	// #20544
   80b98:	f2a7e421 	movk	x1, #0x3f21, lsl #16
   80b9c:	b9000020 	str	w0, [x1]
   80ba0:	d65f03c0 	ret
   80ba4:	d503201f 	nop

0000000000080ba8 <uart_getc>:
   80ba8:	d28a0a81 	mov	x1, #0x5054                	// #20564
   80bac:	f2a7e421 	movk	x1, #0x3f21, lsl #16
   80bb0:	d503201f 	nop
   80bb4:	b9400020 	ldr	w0, [x1]
   80bb8:	3607ffc0 	tbz	w0, #0, 80bb0 <uart_getc+0x8>
   80bbc:	d28a0800 	mov	x0, #0x5040                	// #20544
   80bc0:	52800141 	mov	w1, #0xa                   	// #10
   80bc4:	f2a7e420 	movk	x0, #0x3f21, lsl #16
   80bc8:	b9400000 	ldr	w0, [x0]
   80bcc:	12001c00 	and	w0, w0, #0xff
   80bd0:	7100341f 	cmp	w0, #0xd
   80bd4:	1a811000 	csel	w0, w0, w1, ne  // ne = any
   80bd8:	d65f03c0 	ret
   80bdc:	d503201f 	nop

0000000000080be0 <uart_puts>:
   80be0:	39400001 	ldrb	w1, [x0]
   80be4:	34000221 	cbz	w1, 80c28 <uart_puts+0x48>
   80be8:	d28a0a82 	mov	x2, #0x5054                	// #20564
   80bec:	d28a0804 	mov	x4, #0x5040                	// #20544
   80bf0:	f2a7e422 	movk	x2, #0x3f21, lsl #16
   80bf4:	f2a7e424 	movk	x4, #0x3f21, lsl #16
   80bf8:	528001a5 	mov	w5, #0xd                   	// #13
   80bfc:	d503201f 	nop
   80c00:	7100283f 	cmp	w1, #0xa
   80c04:	54000140 	b.eq	80c2c <uart_puts+0x4c>  // b.none
   80c08:	38401403 	ldrb	w3, [x0], #1
   80c0c:	d503201f 	nop
   80c10:	d503201f 	nop
   80c14:	b9400041 	ldr	w1, [x2]
   80c18:	362fffc1 	tbz	w1, #5, 80c10 <uart_puts+0x30>
   80c1c:	b9000083 	str	w3, [x4]
   80c20:	39400001 	ldrb	w1, [x0]
   80c24:	35fffee1 	cbnz	w1, 80c00 <uart_puts+0x20>
   80c28:	d65f03c0 	ret
   80c2c:	d503201f 	nop
   80c30:	b9400041 	ldr	w1, [x2]
   80c34:	362fffc1 	tbz	w1, #5, 80c2c <uart_puts+0x4c>
   80c38:	b9000085 	str	w5, [x4]
   80c3c:	17fffff3 	b	80c08 <uart_puts+0x28>

0000000000080c40 <uart_puthex>:
   80c40:	d28a0a82 	mov	x2, #0x5054                	// #20564
   80c44:	d28a0806 	mov	x6, #0x5040                	// #20544
   80c48:	52800383 	mov	w3, #0x1c                  	// #28
   80c4c:	f2a7e422 	movk	x2, #0x3f21, lsl #16
   80c50:	f2a7e426 	movk	x6, #0x3f21, lsl #16
   80c54:	d503201f 	nop
   80c58:	1ac32401 	lsr	w1, w0, w3
   80c5c:	12000c21 	and	w1, w1, #0xf
   80c60:	1100dc25 	add	w5, w1, #0x37
   80c64:	1100c024 	add	w4, w1, #0x30
   80c68:	7100283f 	cmp	w1, #0xa
   80c6c:	1a853084 	csel	w4, w4, w5, cc  // cc = lo, ul, last
   80c70:	d503201f 	nop
   80c74:	b9400041 	ldr	w1, [x2]
   80c78:	362fffc1 	tbz	w1, #5, 80c70 <uart_puthex+0x30>
   80c7c:	b90000c4 	str	w4, [x6]
   80c80:	51001063 	sub	w3, w3, #0x4
   80c84:	3100107f 	cmn	w3, #0x4
   80c88:	54fffe81 	b.ne	80c58 <uart_puthex+0x18>  // b.any
   80c8c:	d65f03c0 	ret

0000000000080c90 <init_GPIO>:
   80c90:	528ccce2 	mov	w2, #0x6667                	// #26215
   80c94:	131f7c06 	asr	w6, w0, #31
   80c98:	72acccc2 	movk	w2, #0x6666, lsl #16
   80c9c:	12001c21 	and	w1, w1, #0xff
   80ca0:	9b227c02 	smull	x2, w0, w2
   80ca4:	9362fc42 	asr	x2, x2, #34
   80ca8:	6b060042 	subs	w2, w2, w6
   80cac:	54000200 	b.eq	80cec <init_GPIO+0x5c>  // b.none
   80cb0:	7100045f 	cmp	w2, #0x1
   80cb4:	54000800 	b.eq	80db4 <init_GPIO+0x124>  // b.none
   80cb8:	7100085f 	cmp	w2, #0x2
   80cbc:	54000880 	b.eq	80dcc <init_GPIO+0x13c>  // b.none
   80cc0:	71000c5f 	cmp	w2, #0x3
   80cc4:	540007e0 	b.eq	80dc0 <init_GPIO+0x130>  // b.none
   80cc8:	7100105f 	cmp	w2, #0x4
   80ccc:	54000860 	b.eq	80dd8 <init_GPIO+0x148>  // b.none
   80cd0:	d2800287 	mov	x7, #0x14                  	// #20
   80cd4:	7100145f 	cmp	w2, #0x5
   80cd8:	f2a7e407 	movk	x7, #0x3f20, lsl #16
   80cdc:	540000a0 	b.eq	80cf0 <init_GPIO+0x60>  // b.none
   80ce0:	90000000 	adrp	x0, 80000 <_start>
   80ce4:	913fc000 	add	x0, x0, #0xff0
   80ce8:	17ffffbe 	b	80be0 <uart_puts>
   80cec:	d2a7e407 	mov	x7, #0x3f200000            	// #1059061760
   80cf0:	528ccce3 	mov	w3, #0x6667                	// #26215
   80cf4:	b94000e9 	ldr	w9, [x7]
   80cf8:	72acccc3 	movk	w3, #0x6666, lsl #16
   80cfc:	528000e4 	mov	w4, #0x7                   	// #7
   80d00:	52800025 	mov	w5, #0x1                   	// #1
   80d04:	d2801288 	mov	x8, #0x94                  	// #148
   80d08:	9b237c03 	smull	x3, w0, w3
   80d0c:	7100003f 	cmp	w1, #0x0
   80d10:	f2a7e408 	movk	x8, #0x3f20, lsl #16
   80d14:	528012c2 	mov	w2, #0x96                  	// #150
   80d18:	9362fc63 	asr	x3, x3, #34
   80d1c:	4b060063 	sub	w3, w3, w6
   80d20:	0b030863 	add	w3, w3, w3, lsl #2
   80d24:	4b030403 	sub	w3, w0, w3, lsl #1
   80d28:	0b030463 	add	w3, w3, w3, lsl #1
   80d2c:	1ac32084 	lsl	w4, w4, w3
   80d30:	0a240124 	bic	w4, w9, w4
   80d34:	1ac320a3 	lsl	w3, w5, w3
   80d38:	2a030083 	orr	w3, w4, w3
   80d3c:	1a840064 	csel	w4, w3, w4, eq  // eq = none
   80d40:	b90000e4 	str	w4, [x7]
   80d44:	b900011f 	str	wzr, [x8]
   80d48:	d503201f 	nop
   80d4c:	71000442 	subs	w2, w2, #0x1
   80d50:	54ffffc1 	b.ne	80d48 <init_GPIO+0xb8>  // b.any
   80d54:	d2801303 	mov	x3, #0x98                  	// #152
   80d58:	52800022 	mov	w2, #0x1                   	// #1
   80d5c:	f2a7e403 	movk	x3, #0x3f20, lsl #16
   80d60:	1ac02042 	lsl	w2, w2, w0
   80d64:	528012c0 	mov	w0, #0x96                  	// #150
   80d68:	b9000062 	str	w2, [x3]
   80d6c:	d503201f 	nop
   80d70:	d503201f 	nop
   80d74:	71000400 	subs	w0, w0, #0x1
   80d78:	54ffffc1 	b.ne	80d70 <init_GPIO+0xe0>  // b.any
   80d7c:	d2801300 	mov	x0, #0x98                  	// #152
   80d80:	f2a7e400 	movk	x0, #0x3f20, lsl #16
   80d84:	b900001f 	str	wzr, [x0]
   80d88:	34000141 	cbz	w1, 80db0 <init_GPIO+0x120>
   80d8c:	d2800981 	mov	x1, #0x4c                  	// #76
   80d90:	d2964283 	mov	x3, #0xb214                	// #45588
   80d94:	f2a7e401 	movk	x1, #0x3f20, lsl #16
   80d98:	f2a7e003 	movk	x3, #0x3f00, lsl #16
   80d9c:	52a00204 	mov	w4, #0x100000              	// #1048576
   80da0:	b9400020 	ldr	w0, [x1]
   80da4:	2a000040 	orr	w0, w2, w0
   80da8:	b9000020 	str	w0, [x1]
   80dac:	b9000064 	str	w4, [x3]
   80db0:	d65f03c0 	ret
   80db4:	d2800087 	mov	x7, #0x4                   	// #4
   80db8:	f2a7e407 	movk	x7, #0x3f20, lsl #16
   80dbc:	17ffffcd 	b	80cf0 <init_GPIO+0x60>
   80dc0:	d2800187 	mov	x7, #0xc                   	// #12
   80dc4:	f2a7e407 	movk	x7, #0x3f20, lsl #16
   80dc8:	17ffffca 	b	80cf0 <init_GPIO+0x60>
   80dcc:	d2800107 	mov	x7, #0x8                   	// #8
   80dd0:	f2a7e407 	movk	x7, #0x3f20, lsl #16
   80dd4:	17ffffc7 	b	80cf0 <init_GPIO+0x60>
   80dd8:	d2800207 	mov	x7, #0x10                  	// #16
   80ddc:	f2a7e407 	movk	x7, #0x3f20, lsl #16
   80de0:	17ffffc4 	b	80cf0 <init_GPIO+0x60>
   80de4:	d503201f 	nop

0000000000080de8 <set_GPIO>:
   80de8:	d2800382 	mov	x2, #0x1c                  	// #28
   80dec:	52800021 	mov	w1, #0x1                   	// #1
   80df0:	f2a7e402 	movk	x2, #0x3f20, lsl #16
   80df4:	1ac02020 	lsl	w0, w1, w0
   80df8:	b9000040 	str	w0, [x2]
   80dfc:	d65f03c0 	ret

0000000000080e00 <clear_GPIO>:
   80e00:	d2800502 	mov	x2, #0x28                  	// #40
   80e04:	52800021 	mov	w1, #0x1                   	// #1
   80e08:	f2a7e402 	movk	x2, #0x3f20, lsl #16
   80e0c:	1ac02020 	lsl	w0, w1, w0
   80e10:	b9000040 	str	w0, [x2]
   80e14:	d65f03c0 	ret

0000000000080e18 <main>:
   80e18:	a9ba7bfd 	stp	x29, x30, [sp, #-96]!
   80e1c:	910003fd 	mov	x29, sp
   80e20:	a9025bf5 	stp	x21, x22, [sp, #32]
   80e24:	b0000016 	adrp	x22, 81000 <IRQ_handler+0x98>
   80e28:	a90153f3 	stp	x19, x20, [sp, #16]
   80e2c:	52800034 	mov	w20, #0x1                   	// #1
   80e30:	a90363f7 	stp	x23, x24, [sp, #48]
   80e34:	52942413 	mov	w19, #0xa120                	// #41248
   80e38:	a9046bf9 	stp	x25, x26, [sp, #64]
   80e3c:	72a000f3 	movk	w19, #0x7, lsl #16
   80e40:	a90573fb 	stp	x27, x28, [sp, #80]
   80e44:	97ffff19 	bl	80aa8 <uart_init>
   80e48:	52800001 	mov	w1, #0x0                   	// #0
   80e4c:	52800080 	mov	w0, #0x4                   	// #4
   80e50:	b90082d4 	str	w20, [x22, #128]
   80e54:	97ffff8f 	bl	80c90 <init_GPIO>
   80e58:	52800001 	mov	w1, #0x0                   	// #0
   80e5c:	52800220 	mov	w0, #0x11                  	// #17
   80e60:	97ffff8c 	bl	80c90 <init_GPIO>
   80e64:	2a1403fc 	mov	w28, w20
   80e68:	52800360 	mov	w0, #0x1b                  	// #27
   80e6c:	52800001 	mov	w1, #0x0                   	// #0
   80e70:	97ffff88 	bl	80c90 <init_GPIO>
   80e74:	b000001a 	adrp	x26, 81000 <IRQ_handler+0x98>
   80e78:	2a1403e1 	mov	w1, w20
   80e7c:	528002e0 	mov	w0, #0x17                  	// #23
   80e80:	97ffff84 	bl	80c90 <init_GPIO>
   80e84:	d2800398 	mov	x24, #0x1c                  	// #28
   80e88:	2a1403e1 	mov	w1, w20
   80e8c:	528002c0 	mov	w0, #0x16                  	// #22
   80e90:	d2800517 	mov	x23, #0x28                  	// #40
   80e94:	529a1214 	mov	w20, #0xd090                	// #53392
   80e98:	2a1303f5 	mov	w21, w19
   80e9c:	9101435a 	add	x26, x26, #0x50
   80ea0:	b0000019 	adrp	x25, 81000 <IRQ_handler+0x98>
   80ea4:	f2a7e418 	movk	x24, #0x3f20, lsl #16
   80ea8:	f2a7e417 	movk	x23, #0x3f20, lsl #16
   80eac:	72a00074 	movk	w20, #0x3, lsl #16
   80eb0:	97ffff78 	bl	80c90 <init_GPIO>
   80eb4:	97fffec7 	bl	809d0 <enableIRQ>
   80eb8:	b0000000 	adrp	x0, 81000 <IRQ_handler+0x98>
   80ebc:	91002000 	add	x0, x0, #0x8
   80ec0:	97ffff48 	bl	80be0 <uart_puts>
   80ec4:	d503201f 	nop
   80ec8:	7100079f 	cmp	w28, #0x1
   80ecc:	540002a0 	b.eq	80f20 <main+0x108>  // b.none
   80ed0:	71000b9f 	cmp	w28, #0x2
   80ed4:	54000400 	b.eq	80f54 <main+0x13c>  // b.none
   80ed8:	5280007c 	mov	w28, #0x3                   	// #3
   80edc:	52a1001b 	mov	w27, #0x8000000             	// #134217728
   80ee0:	aa1a03e0 	mov	x0, x26
   80ee4:	97ffff3f 	bl	80be0 <uart_puts>
   80ee8:	b900031b 	str	w27, [x24]
   80eec:	2a1303e0 	mov	w0, w19
   80ef0:	97fffece 	bl	80a28 <microsecond_delay>
   80ef4:	b90002fb 	str	w27, [x23]
   80ef8:	91012320 	add	x0, x25, #0x48
   80efc:	97ffff39 	bl	80be0 <uart_puts>
   80f00:	2a1303e0 	mov	w0, w19
   80f04:	97fffec9 	bl	80a28 <microsecond_delay>
   80f08:	b94082c0 	ldr	w0, [x22, #128]
   80f0c:	0b00039c 	add	w28, w28, w0
   80f10:	71000f9f 	cmp	w28, #0x3
   80f14:	5400012d 	b.le	80f38 <main+0x120>
   80f18:	7100041f 	cmp	w0, #0x1
   80f1c:	1a951293 	csel	w19, w20, w21, ne  // ne = any
   80f20:	b0000000 	adrp	x0, 81000 <IRQ_handler+0x98>
   80f24:	5280021b 	mov	w27, #0x10                  	// #16
   80f28:	9100a000 	add	x0, x0, #0x28
   80f2c:	5280003c 	mov	w28, #0x1                   	// #1
   80f30:	97ffff2c 	bl	80be0 <uart_puts>
   80f34:	17ffffed 	b	80ee8 <main+0xd0>
   80f38:	7100041f 	cmp	w0, #0x1
   80f3c:	1a9402b3 	csel	w19, w21, w20, eq  // eq = none
   80f40:	7100039f 	cmp	w28, #0x0
   80f44:	54fffc2c 	b.gt	80ec8 <main+0xb0>
   80f48:	7100041f 	cmp	w0, #0x1
   80f4c:	1a951293 	csel	w19, w20, w21, ne  // ne = any
   80f50:	17ffffe2 	b	80ed8 <main+0xc0>
   80f54:	52a0005b 	mov	w27, #0x20000               	// #131072
   80f58:	b0000000 	adrp	x0, 81000 <IRQ_handler+0x98>
   80f5c:	9100e000 	add	x0, x0, #0x38
   80f60:	97ffff20 	bl	80be0 <uart_puts>
   80f64:	17ffffe1 	b	80ee8 <main+0xd0>

0000000000080f68 <IRQ_handler>:
   80f68:	d2964100 	mov	x0, #0xb208                	// #45576
   80f6c:	f2a7e000 	movk	x0, #0x3f00, lsl #16
   80f70:	b9400000 	ldr	w0, [x0]
   80f74:	7144001f 	cmp	w0, #0x100, lsl #12
   80f78:	54000040 	b.eq	80f80 <IRQ_handler+0x18>  // b.none
   80f7c:	d65f03c0 	ret
   80f80:	d2800800 	mov	x0, #0x40                  	// #64
   80f84:	f2a7e400 	movk	x0, #0x3f20, lsl #16
   80f88:	b9400001 	ldr	w1, [x0]
   80f8c:	7160003f 	cmp	w1, #0x800, lsl #12
   80f90:	54000120 	b.eq	80fb4 <IRQ_handler+0x4c>  // b.none
   80f94:	b9400001 	ldr	w1, [x0]
   80f98:	7150003f 	cmp	w1, #0x400, lsl #12
   80f9c:	540001a0 	b.eq	80fd0 <IRQ_handler+0x68>  // b.none
   80fa0:	b9400001 	ldr	w1, [x0]
   80fa4:	7170003f 	cmp	w1, #0xc00, lsl #12
   80fa8:	54fffea1 	b.ne	80f7c <IRQ_handler+0x14>  // b.any
   80fac:	b9000001 	str	w1, [x0]
   80fb0:	d65f03c0 	ret
   80fb4:	b9000001 	str	w1, [x0]
   80fb8:	b0000001 	adrp	x1, 81000 <IRQ_handler+0x98>
   80fbc:	12800002 	mov	w2, #0xffffffff            	// #-1
   80fc0:	b0000000 	adrp	x0, 81000 <IRQ_handler+0x98>
   80fc4:	b9008022 	str	w2, [x1, #128]
   80fc8:	91018000 	add	x0, x0, #0x60
   80fcc:	17ffff05 	b	80be0 <uart_puts>
   80fd0:	b9000001 	str	w1, [x0]
   80fd4:	b0000001 	adrp	x1, 81000 <IRQ_handler+0x98>
   80fd8:	52800022 	mov	w2, #0x1                   	// #1
   80fdc:	b0000000 	adrp	x0, 81000 <IRQ_handler+0x98>
   80fe0:	b9008022 	str	w2, [x1, #128]
   80fe4:	9101c000 	add	x0, x0, #0x70
   80fe8:	17fffefe 	b	80be0 <uart_puts>
